; Function Attrs: nofree norecurse nosync nounwind memory(read, inaccessiblemem: none) uwtable
define i32 @Saig_ManBmcTerSimCount01Po(ptr noundef readonly captures(none) %0, ptr noundef readonly captures(none) %1) local_unnamed_addr #5 {
  %3 = getelementptr i8, ptr %0, i64 112
  %.val = load i32, ptr %3, align 8, !tbaa !22
  %4 = icmp sgt i32 %.val, 0
  br i1 %4, label %.lr.ph, label %.critedge

.lr.ph:                                           ; preds = %2
  %5 = getelementptr inbounds nuw i8, ptr %0, i64 24
  %6 = load ptr, ptr %5, align 8, !tbaa !21
  %7 = getelementptr i8, ptr %6, i64 8
  %.val9 = load ptr, ptr %7, align 8, !tbaa !23
  %wide.trip.count = zext nneg i32 %.val to i64
  br label %8

8:                                                ; preds = %.lr.ph, %8
  %indvars.iv = phi i64 [ 0, %.lr.ph ], [ %indvars.iv.next, %8 ]
  %.012 = phi i32 [ 0, %.lr.ph ], [ %22, %8 ]
  %9 = getelementptr inbounds nuw ptr, ptr %.val9, i64 %indvars.iv
  %10 = load ptr, ptr %9, align 8, !tbaa !25
  %11 = getelementptr i8, ptr %10, i64 36
  %.val10 = load i32, ptr %11, align 4, !tbaa !27
  %12 = ashr i32 %.val10, 4
  %13 = sext i32 %12 to i64
  %14 = getelementptr inbounds i32, ptr %1, i64 %13
  %15 = load i32, ptr %14, align 4, !tbaa !28
  %16 = shl i32 %.val10, 1
  %17 = and i32 %16, 30
  %18 = lshr i32 %15, %17
  %19 = and i32 %18, 3
  %20 = icmp ne i32 %19, 3
  %21 = zext i1 %20 to i32
  %22 = add nuw nsw i32 %.012, %21
  %indvars.iv.next = add nuw nsw i64 %indvars.iv, 1
  %exitcond.not = icmp eq i64 %indvars.iv.next, %wide.trip.count
  br i1 %exitcond.not, label %.critedge, label %8, !llvm.loop !54

.critedge:                                        ; preds = %8, %2
  %.0.lcssa = phi i32 [ 0, %2 ], [ %22, %8 ]
  ret i32 %.0.lcssa
}